; Function Attrs: nounwind uwtable
define void @Wlc_PrsStop(ptr noundef captures(none) %0) local_unnamed_addr #0 {
  %2 = getelementptr inbounds nuw i8, ptr %0, i64 48
  %3 = load ptr, ptr %2, align 8
  %.not = icmp eq ptr %3, null
  br i1 %.not, label %5, label %4

4:                                                ; preds = %1
  tail call void @Wlc_NtkFree(ptr noundef nonnull %3) #24
  br label %5

5:                                                ; preds = %4, %1
  %6 = getelementptr inbounds nuw i8, ptr %0, i64 56
  %7 = load ptr, ptr %6, align 8
  %.not17 = icmp eq ptr %7, null
  br i1 %.not17, label %9, label %8

8:                                                ; preds = %5
  tail call void @Mem_FlexStop(ptr noundef nonnull %7, i32 noundef 0) #24
  br label %9

9:                                                ; preds = %8, %5
  %10 = getelementptr inbounds nuw i8, ptr %0, i64 72
  %11 = load ptr, ptr %10, align 8
  %12 = icmp eq ptr %11, null
  br i1 %12, label %Vec_StrFreeP.exit, label %13

13:                                               ; preds = %9
  %14 = getelementptr inbounds nuw i8, ptr %11, i64 8
  %15 = load ptr, ptr %14, align 8
  %.not.i = icmp eq ptr %15, null
  br i1 %.not.i, label %.thread.i, label %16

16:                                               ; preds = %13
  tail call void @free(ptr noundef nonnull %15) #24
  %17 = load ptr, ptr %10, align 8
  %18 = getelementptr inbounds nuw i8, ptr %17, i64 8
  store ptr null, ptr %18, align 8
  %.pre.i = load ptr, ptr %10, align 8
  %.not9.i = icmp eq ptr %.pre.i, null
  br i1 %.not9.i, label %Vec_StrFreeP.exit, label %.thread.i

.thread.i:                                        ; preds = %16, %13
  %19 = phi ptr [ %.pre.i, %16 ], [ %11, %13 ]
  tail call void @free(ptr noundef nonnull %19) #24
  store ptr null, ptr %10, align 8
  br label %Vec_StrFreeP.exit

Vec_StrFreeP.exit:                                ; preds = %9, %16, %.thread.i
  %20 = getelementptr inbounds nuw i8, ptr %0, i64 64
  %21 = load ptr, ptr %20, align 8
  %22 = icmp eq ptr %21, null
  br i1 %22, label %Vec_PtrFreeP.exit, label %23

23:                                               ; preds = %Vec_StrFreeP.exit
  %24 = getelementptr inbounds nuw i8, ptr %21, i64 8
  %25 = load ptr, ptr %24, align 8
  %.not.i20 = icmp eq ptr %25, null
  br i1 %.not.i20, label %.thread.i23, label %26

26:                                               ; preds = %23
  tail call void @free(ptr noundef nonnull %25) #24
  %27 = load ptr, ptr %20, align 8
  %28 = getelementptr inbounds nuw i8, ptr %27, i64 8
  store ptr null, ptr %28, align 8
  %.pre.i21 = load ptr, ptr %20, align 8
  %.not9.i22 = icmp eq ptr %.pre.i21, null
  br i1 %.not9.i22, label %Vec_PtrFreeP.exit, label %.thread.i23

.thread.i23:                                      ; preds = %26, %23
  %29 = phi ptr [ %.pre.i21, %26 ], [ %21, %23 ]
  tail call void @free(ptr noundef nonnull %29) #24
  store ptr null, ptr %20, align 8
  br label %Vec_PtrFreeP.exit

Vec_PtrFreeP.exit:                                ; preds = %Vec_StrFreeP.exit, %26, %.thread.i23
  %30 = getelementptr inbounds nuw i8, ptr %0, i64 24
  %31 = load ptr, ptr %30, align 8
  %32 = getelementptr inbounds nuw i8, ptr %31, i64 8
  %33 = load ptr, ptr %32, align 8
  %.not.i24 = icmp eq ptr %33, null
  br i1 %.not.i24, label %Vec_IntFree.exit, label %34

34:                                               ; preds = %Vec_PtrFreeP.exit
  tail call void @free(ptr noundef nonnull %33) #24
  br label %Vec_IntFree.exit

Vec_IntFree.exit:                                 ; preds = %Vec_PtrFreeP.exit, %34
  tail call void @free(ptr noundef nonnull %31) #24
  %35 = getelementptr inbounds nuw i8, ptr %0, i64 32
  %36 = load ptr, ptr %35, align 8
  %37 = getelementptr inbounds nuw i8, ptr %36, i64 8
  %38 = load ptr, ptr %37, align 8
  %.not.i25 = icmp eq ptr %38, null
  br i1 %.not.i25, label %Vec_IntFree.exit26, label %39

39:                                               ; preds = %Vec_IntFree.exit
  tail call void @free(ptr noundef nonnull %38) #24
  br label %Vec_IntFree.exit26

Vec_IntFree.exit26:                               ; preds = %Vec_IntFree.exit, %39
  tail call void @free(ptr noundef nonnull %36) #24
  %40 = getelementptr inbounds nuw i8, ptr %0, i64 40
  %41 = load ptr, ptr %40, align 8
  %42 = getelementptr inbounds nuw i8, ptr %41, i64 8
  %43 = load ptr, ptr %42, align 8
  %.not.i27 = icmp eq ptr %43, null
  br i1 %.not.i27, label %Vec_IntFree.exit28, label %44

44:                                               ; preds = %Vec_IntFree.exit26
  tail call void @free(ptr noundef nonnull %43) #24
  br label %Vec_IntFree.exit28

Vec_IntFree.exit28:                               ; preds = %Vec_IntFree.exit26, %44
  tail call void @free(ptr noundef nonnull %41) #24
  %45 = getelementptr inbounds nuw i8, ptr %0, i64 16
  %46 = load ptr, ptr %45, align 8
  %.not18 = icmp eq ptr %46, null
  br i1 %.not18, label %48, label %47

47:                                               ; preds = %Vec_IntFree.exit28
  tail call void @free(ptr noundef nonnull %46) #24
  br label %48

48:                                               ; preds = %Vec_IntFree.exit28, %47
  tail call void @free(ptr noundef nonnull %0) #24
  ret void
}